target datalayout = "e-m:e-p270:32:32-p271:32:32-p272:64:64-i64:64-i128:128-f80:128-n8:16:32:64-S128"
target triple = "x86_64-pc-linux-gnu"

%struct.AVProbeData = type { ptr, ptr, i32, ptr }
%struct.AVFormatContext = type { ptr, ptr, ptr, ptr, ptr, i32, i32, ptr, i32, ptr, i32, ptr, ptr, i64, i64, i64, i32, i32, i32, i64, i64, ptr, i32, i32, ptr, i32, i32, i32, i32, ptr, i64, i32, i32, %struct.AVIOInterruptCB, i32, i32, i32, i32, i64, i32, i32, i32, i32, i32, i32, i32, i32, i32, i32, i32, i32, i64, i32, i32, i32, i32, i32, ptr, ptr, ptr, ptr, i32, ptr, ptr, ptr, ptr, i32, ptr, ptr, i64, ptr, ptr, ptr, i64 }
%struct.AVIOInterruptCB = type { ptr, ptr }
%struct.AVStream = type { ptr, i32, i32, ptr, ptr, %struct.AVRational, i64, i64, i64, i32, i32, %struct.AVRational, ptr, %struct.AVRational, %struct.AVPacket, i32, %struct.AVRational, i32 }
%struct.AVPacket = type { ptr, i64, i64, ptr, i32, i32, i32, ptr, i32, i64, i64, ptr, ptr, %struct.AVRational }
%struct.AVRational = type { i32, i32 }
%struct.AVCodecParameters = type { i32, i32, i32, ptr, i32, ptr, i32, i32, i64, i32, i32, i32, i32, i32, i32, %struct.AVRational, %struct.AVRational, i32, i32, i32, i32, i32, i32, i32, %struct.AVChannelLayout, i32, i32, i32, i32, i32, i32 }
%struct.AVChannelLayout = type { i32, i32, %union.anon, ptr }
%union.anon = type { i64 }
%struct.FFStream = type { %struct.AVStream, ptr, i32, ptr, i32, ptr, i32, %struct.anon, i32, i32, %struct.FFFrac, ptr, ptr, i32, i32, i64, i64, i32, i32, i32, i64, i64, i64, i32, i64, i64, i64, i32, i32, [17 x i64], [17 x i8], [17 x i64], i64, i8, i8, %struct.AVRational, %struct.AVProbeData, ptr, i64, i32, i32, i32, ptr, i32, i32, i64, i64, ptr, %struct.AVRational }
%struct.anon = type { ptr, i32 }
%struct.FFFrac = type { i64, i64, i64 }
%struct.LXFDemuxContext = type { i32, i32, i32, i32, i32 }

@.str.3 = private unnamed_addr constant [35 x i8] c"expected %d B size header, got %d\0A\00", align 1
@.str.4 = private unnamed_addr constant [27 x i8] c"record: %x = %i-%02i-%02i\0A\00", align 1
@.str.5 = private unnamed_addr constant [27 x i8] c"expire: %x = %i-%02i-%02i\0A\00", align 1
@.str.6 = private unnamed_addr constant [28 x i8] c"VBI data not yet supported\0A\00", align 1

; Function Attrs: alwaysinline nounwind uwtable
define internal ptr @ffstream(ptr noundef %0) #4 {
  %2 = alloca ptr, align 8
  store ptr %0, ptr %2, align 8, !tbaa !35
  %3 = load ptr, ptr %2, align 8, !tbaa !35
  ret ptr %3
}

; Function Attrs: nounwind uwtable
define internal i32 @lxf_read_header(ptr noundef %0) #0 {
  %2 = alloca i32, align 4
  %3 = alloca ptr, align 8
  %4 = alloca ptr, align 8
  %5 = alloca ptr, align 8
  %6 = alloca [120 x i8], align 16
  %7 = alloca i32, align 4
  %8 = alloca ptr, align 8
  %9 = alloca i32, align 4
  %10 = alloca i32, align 4
  %11 = alloca i16, align 2
  %12 = alloca i16, align 2
  %13 = alloca i32, align 4
  store ptr %0, ptr %3, align 8, !tbaa !13
  call void @llvm.lifetime.start.p0(i64 8, ptr %4) #8
  %14 = load ptr, ptr %3, align 8, !tbaa !13
  %15 = getelementptr inbounds nuw %struct.AVFormatContext, ptr %14, i32 0, i32 3
  %16 = load ptr, ptr %15, align 8, !tbaa !15
  store ptr %16, ptr %4, align 8, !tbaa !30
  call void @llvm.lifetime.start.p0(i64 8, ptr %5) #8
  %17 = load ptr, ptr %3, align 8, !tbaa !13
  %18 = getelementptr inbounds nuw %struct.AVFormatContext, ptr %17, i32 0, i32 4
  %19 = load ptr, ptr %18, align 8, !tbaa !32
  store ptr %19, ptr %5, align 8, !tbaa !33
  call void @llvm.lifetime.start.p0(i64 120, ptr %6) #8
  call void @llvm.lifetime.start.p0(i64 4, ptr %7) #8
  call void @llvm.lifetime.start.p0(i64 8, ptr %8) #8
  call void @llvm.lifetime.start.p0(i64 4, ptr %9) #8
  call void @llvm.lifetime.start.p0(i64 4, ptr %10) #8
  call void @llvm.lifetime.start.p0(i64 2, ptr %11) #8
  call void @llvm.lifetime.start.p0(i64 2, ptr %12) #8
  %20 = load ptr, ptr %3, align 8, !tbaa !13
  %21 = call i32 @get_packet_header(ptr noundef %20)
  store i32 %21, ptr %7, align 4, !tbaa !34
  %22 = icmp slt i32 %21, 0
  br i1 %22, label %23, label %25

23:                                               ; preds = %1
  %24 = load i32, ptr %7, align 4, !tbaa !34
  store i32 %24, ptr %2, align 4
  store i32 1, ptr %13, align 4
  br label %177

25:                                               ; preds = %1
  %26 = load i32, ptr %7, align 4, !tbaa !34
  %27 = icmp ne i32 %26, 120
  br i1 %27, label %28, label %31

28:                                               ; preds = %25
  %29 = load ptr, ptr %3, align 8, !tbaa !13
  %30 = load i32, ptr %7, align 4, !tbaa !34
  call void (ptr, i32, ptr, ...) @av_log(ptr noundef %29, i32 noundef 16, ptr noundef @.str.3, i32 noundef 120, i32 noundef %30)
  store i32 -1094995529, ptr %2, align 4
  store i32 1, ptr %13, align 4
  br label %177

31:                                               ; preds = %25
  %32 = load ptr, ptr %5, align 8, !tbaa !33
  %33 = getelementptr inbounds [120 x i8], ptr %6, i64 0, i64 0
  %34 = call i32 @avio_read(ptr noundef %32, ptr noundef %33, i32 noundef 120)
  store i32 %34, ptr %7, align 4, !tbaa !34
  %35 = icmp ne i32 %34, 120
  br i1 %35, label %36, label %44

36:                                               ; preds = %31
  %37 = load i32, ptr %7, align 4, !tbaa !34
  %38 = icmp slt i32 %37, 0
  br i1 %38, label %39, label %41

39:                                               ; preds = %36
  %40 = load i32, ptr %7, align 4, !tbaa !34
  br label %42

41:                                               ; preds = %36
  br label %42

42:                                               ; preds = %41, %39
  %43 = phi i32 [ %40, %39 ], [ -541478725, %41 ]
  store i32 %43, ptr %2, align 4
  store i32 1, ptr %13, align 4
  br label %177

44:                                               ; preds = %31
  %45 = load ptr, ptr %3, align 8, !tbaa !13
  %46 = call ptr @avformat_new_stream(ptr noundef %45, ptr noundef null)
  store ptr %46, ptr %8, align 8, !tbaa !35
  %47 = icmp ne ptr %46, null
  br i1 %47, label %49, label %48

48:                                               ; preds = %44
  store i32 -12, ptr %2, align 4
  store i32 1, ptr %13, align 4
  br label %177

49:                                               ; preds = %44
  %50 = getelementptr inbounds [120 x i8], ptr %6, i64 0, i64 32
  %51 = load i32, ptr %50, align 16, !tbaa !37
  %52 = zext i32 %51 to i64
  %53 = load ptr, ptr %8, align 8, !tbaa !35
  %54 = getelementptr inbounds nuw %struct.AVStream, ptr %53, i32 0, i32 7
  store i64 %52, ptr %54, align 8, !tbaa !38
  %55 = getelementptr inbounds [120 x i8], ptr %6, i64 0, i64 40
  %56 = load i32, ptr %55, align 8, !tbaa !37
  store i32 %56, ptr %9, align 4, !tbaa !34
  %57 = getelementptr inbounds [120 x i8], ptr %6, i64 0, i64 56
  %58 = load i16, ptr %57, align 8, !tbaa !37
  store i16 %58, ptr %11, align 2, !tbaa !45
  %59 = getelementptr inbounds [120 x i8], ptr %6, i64 0, i64 58
  %60 = load i16, ptr %59, align 2, !tbaa !37
  store i16 %60, ptr %12, align 2, !tbaa !45
  %61 = getelementptr inbounds [120 x i8], ptr %6, i64 0, i64 116
  %62 = load i32, ptr %61, align 4, !tbaa !37
  store i32 %62, ptr %10, align 4, !tbaa !34
  %63 = load ptr, ptr %8, align 8, !tbaa !35
  %64 = getelementptr inbounds nuw %struct.AVStream, ptr %63, i32 0, i32 3
  %65 = load ptr, ptr %64, align 8, !tbaa !47
  %66 = getelementptr inbounds nuw %struct.AVCodecParameters, ptr %65, i32 0, i32 0
  store i32 0, ptr %66, align 8, !tbaa !48
  %67 = load i32, ptr %9, align 4, !tbaa !34
  %68 = lshr i32 %67, 14
  %69 = and i32 %68, 255
  %70 = mul i32 1000000, %69
  %71 = zext i32 %70 to i64
  %72 = load ptr, ptr %8, align 8, !tbaa !35
  %73 = getelementptr inbounds nuw %struct.AVStream, ptr %72, i32 0, i32 3
  %74 = load ptr, ptr %73, align 8, !tbaa !47
  %75 = getelementptr inbounds nuw %struct.AVCodecParameters, ptr %74, i32 0, i32 8
  store i64 %71, ptr %75, align 8, !tbaa !51
  %76 = load i32, ptr %9, align 4, !tbaa !34
  %77 = and i32 %76, 15
  %78 = load ptr, ptr %8, align 8, !tbaa !35
  %79 = getelementptr inbounds nuw %struct.AVStream, ptr %78, i32 0, i32 3
  %80 = load ptr, ptr %79, align 8, !tbaa !47
  %81 = getelementptr inbounds nuw %struct.AVCodecParameters, ptr %80, i32 0, i32 2
  store i32 %77, ptr %81, align 8, !tbaa !52
  %82 = load ptr, ptr %8, align 8, !tbaa !35
  %83 = getelementptr inbounds nuw %struct.AVStream, ptr %82, i32 0, i32 3
  %84 = load ptr, ptr %83, align 8, !tbaa !47
  %85 = getelementptr inbounds nuw %struct.AVCodecParameters, ptr %84, i32 0, i32 2
  %86 = load i32, ptr %85, align 8, !tbaa !52
  %87 = call i32 @ff_codec_get_id(ptr noundef @lxf_tags, i32 noundef %86)
  %88 = load ptr, ptr %8, align 8, !tbaa !35
  %89 = getelementptr inbounds nuw %struct.AVStream, ptr %88, i32 0, i32 3
  %90 = load ptr, ptr %89, align 8, !tbaa !47
  %91 = getelementptr inbounds nuw %struct.AVCodecParameters, ptr %90, i32 0, i32 1
  store i32 %87, ptr %91, align 4, !tbaa !53
  %92 = load ptr, ptr %8, align 8, !tbaa !35
  %93 = call ptr @ffstream(ptr noundef %92)
  %94 = getelementptr inbounds nuw %struct.FFStream, ptr %93, i32 0, i32 41
  store i32 2, ptr %94, align 8, !tbaa !54
  %95 = load ptr, ptr %3, align 8, !tbaa !13
  %96 = load i16, ptr %11, align 2, !tbaa !45
  %97 = zext i16 %96 to i32
  %98 = load i16, ptr %11, align 2, !tbaa !45
  %99 = zext i16 %98 to i32
  %100 = and i32 %99, 127
  %101 = add nsw i32 1900, %100
  %102 = load i16, ptr %11, align 2, !tbaa !45
  %103 = zext i16 %102 to i32
  %104 = ashr i32 %103, 7
  %105 = and i32 %104, 15
  %106 = load i16, ptr %11, align 2, !tbaa !45
  %107 = zext i16 %106 to i32
  %108 = ashr i32 %107, 11
  %109 = and i32 %108, 31
  call void (ptr, i32, ptr, ...) @av_log(ptr noundef %95, i32 noundef 48, ptr noundef @.str.4, i32 noundef %97, i32 noundef %101, i32 noundef %105, i32 noundef %109)
  %110 = load ptr, ptr %3, align 8, !tbaa !13
  %111 = load i16, ptr %12, align 2, !tbaa !45
  %112 = zext i16 %111 to i32
  %113 = load i16, ptr %12, align 2, !tbaa !45
  %114 = zext i16 %113 to i32
  %115 = and i32 %114, 127
  %116 = add nsw i32 1900, %115
  %117 = load i16, ptr %12, align 2, !tbaa !45
  %118 = zext i16 %117 to i32
  %119 = ashr i32 %118, 7
  %120 = and i32 %119, 15
  %121 = load i16, ptr %12, align 2, !tbaa !45
  %122 = zext i16 %121 to i32
  %123 = ashr i32 %122, 11
  %124 = and i32 %123, 31
  call void (ptr, i32, ptr, ...) @av_log(ptr noundef %110, i32 noundef 48, ptr noundef @.str.5, i32 noundef %112, i32 noundef %116, i32 noundef %120, i32 noundef %124)
  %125 = load i32, ptr %9, align 4, !tbaa !34
  %126 = lshr i32 %125, 22
  %127 = and i32 %126, 1
  %128 = icmp ne i32 %127, 0
  br i1 %128, label %129, label %131

129:                                              ; preds = %49
  %130 = load ptr, ptr %3, align 8, !tbaa !13
  call void (ptr, i32, ptr, ...) @av_log(ptr noundef %130, i32 noundef 24, ptr noundef @.str.6)
  br label %131

131:                                              ; preds = %129, %49
  %132 = load i32, ptr %10, align 4, !tbaa !34
  %133 = lshr i32 %132, 4
  %134 = and i32 %133, 3
  %135 = add i32 %134, 1
  %136 = shl i32 1, %135
  %137 = load ptr, ptr %4, align 8, !tbaa !30
  %138 = getelementptr inbounds nuw %struct.LXFDemuxContext, ptr %137, i32 0, i32 0
  store i32 %136, ptr %138, align 4, !tbaa !65
  %139 = icmp ne i32 %136, 0
  br i1 %139, label %140, label %168

140:                                              ; preds = %131
  %141 = load ptr, ptr %3, align 8, !tbaa !13
  %142 = call ptr @avformat_new_stream(ptr noundef %141, ptr noundef null)
  store ptr %142, ptr %8, align 8, !tbaa !35
  %143 = icmp ne ptr %142, null
  br i1 %143, label %145, label %144

144:                                              ; preds = %140
  store i32 -12, ptr %2, align 4
  store i32 1, ptr %13, align 4
  br label %177

145:                                              ; preds = %140
  %146 = load ptr, ptr %8, align 8, !tbaa !35
  %147 = getelementptr inbounds nuw %struct.AVStream, ptr %146, i32 0, i32 3
  %148 = load ptr, ptr %147, align 8, !tbaa !47
  %149 = getelementptr inbounds nuw %struct.AVCodecParameters, ptr %148, i32 0, i32 0
  store i32 1, ptr %149, align 8, !tbaa !48
  %150 = load ptr, ptr %8, align 8, !tbaa !35
  %151 = getelementptr inbounds nuw %struct.AVStream, ptr %150, i32 0, i32 3
  %152 = load ptr, ptr %151, align 8, !tbaa !47
  %153 = getelementptr inbounds nuw %struct.AVCodecParameters, ptr %152, i32 0, i32 25
  store i32 48000, ptr %153, align 8, !tbaa !67
  %154 = load ptr, ptr %4, align 8, !tbaa !30
  %155 = getelementptr inbounds nuw %struct.LXFDemuxContext, ptr %154, i32 0, i32 0
  %156 = load i32, ptr %155, align 4, !tbaa !65
  %157 = load ptr, ptr %8, align 8, !tbaa !35
  %158 = getelementptr inbounds nuw %struct.AVStream, ptr %157, i32 0, i32 3
  %159 = load ptr, ptr %158, align 8, !tbaa !47
  %160 = getelementptr inbounds nuw %struct.AVCodecParameters, ptr %159, i32 0, i32 24
  %161 = getelementptr inbounds nuw %struct.AVChannelLayout, ptr %160, i32 0, i32 1
  store i32 %156, ptr %161, align 4, !tbaa !68
  %162 = load ptr, ptr %8, align 8, !tbaa !35
  %163 = load ptr, ptr %8, align 8, !tbaa !35
  %164 = getelementptr inbounds nuw %struct.AVStream, ptr %163, i32 0, i32 3
  %165 = load ptr, ptr %164, align 8, !tbaa !47
  %166 = getelementptr inbounds nuw %struct.AVCodecParameters, ptr %165, i32 0, i32 25
  %167 = load i32, ptr %166, align 8, !tbaa !67
  call void @avpriv_set_pts_info(ptr noundef %162, i32 noundef 64, i32 noundef 1, i32 noundef %167)
  br label %168

168:                                              ; preds = %145, %131
  %169 = load ptr, ptr %3, align 8, !tbaa !13
  %170 = getelementptr inbounds nuw %struct.AVFormatContext, ptr %169, i32 0, i32 4
  %171 = load ptr, ptr %170, align 8, !tbaa !32
  %172 = load ptr, ptr %4, align 8, !tbaa !30
  %173 = getelementptr inbounds nuw %struct.LXFDemuxContext, ptr %172, i32 0, i32 4
  %174 = load i32, ptr %173, align 4, !tbaa !69
  %175 = zext i32 %174 to i64
  %176 = call i64 @avio_skip(ptr noundef %171, i64 noundef %175)
  store i32 0, ptr %2, align 4
  store i32 1, ptr %13, align 4
  br label %177

177:                                              ; preds = %168, %144, %48, %42, %28, %23
  call void @llvm.lifetime.end.p0(i64 2, ptr %12) #8
  call void @llvm.lifetime.end.p0(i64 2, ptr %11) #8
  call void @llvm.lifetime.end.p0(i64 4, ptr %10) #8
  call void @llvm.lifetime.end.p0(i64 4, ptr %9) #8
  call void @llvm.lifetime.end.p0(i64 8, ptr %8) #8
  call void @llvm.lifetime.end.p0(i64 4, ptr %7) #8
  call void @llvm.lifetime.end.p0(i64 120, ptr %6) #8
  call void @llvm.lifetime.end.p0(i64 8, ptr %5) #8
  call void @llvm.lifetime.end.p0(i64 8, ptr %4) #8
  %178 = load i32, ptr %2, align 4
  ret i32 %178
}