; Function Attrs: nounwind uwtable
define internal range(i32 121, 120) i32 @lxf_read_header(ptr noundef %0) #1 {
  %2 = alloca [120 x i8], align 16
  %3 = getelementptr inbounds nuw i8, ptr %0, i64 24
  %4 = load ptr, ptr %3, align 8, !tbaa !11
  %5 = getelementptr inbounds nuw i8, ptr %0, i64 32
  %6 = load ptr, ptr %5, align 8, !tbaa !26
  call void @llvm.lifetime.start.p0(i64 120, ptr nonnull %2) #7
  %7 = tail call fastcc i32 @get_packet_header(ptr noundef %0)
  %8 = icmp slt i32 %7, 0
  br i1 %8, label %74, label %9

9:                                                ; preds = %1
  %.not = icmp eq i32 %7, 120
  br i1 %.not, label %11, label %10

10:                                               ; preds = %9
  tail call void (ptr, i32, ptr, ...) @av_log(ptr noundef nonnull %0, i32 noundef 16, ptr noundef nonnull @.str.3, i32 noundef 120, i32 noundef %7) #7
  br label %74

11:                                               ; preds = %9
  %12 = call i32 @avio_read(ptr noundef %6, ptr noundef nonnull %2, i32 noundef 120) #7
  %.not47 = icmp eq i32 %12, 120
  br i1 %.not47, label %16, label %13

13:                                               ; preds = %11
  %14 = icmp slt i32 %12, 0
  %15 = select i1 %14, i32 %12, i32 -541478725
  br label %74

16:                                               ; preds = %11
  %17 = call ptr @avformat_new_stream(ptr noundef nonnull %0, ptr noundef null) #7
  %.not48 = icmp eq ptr %17, null
  br i1 %.not48, label %74, label %18

18:                                               ; preds = %16
  %19 = getelementptr inbounds nuw i8, ptr %2, i64 32
  %20 = load i32, ptr %19, align 16, !tbaa !27
  %21 = zext i32 %20 to i64
  %22 = getelementptr inbounds nuw i8, ptr %17, i64 48
  store i64 %21, ptr %22, align 8, !tbaa !28
  %23 = getelementptr inbounds nuw i8, ptr %2, i64 40
  %24 = load i32, ptr %23, align 8, !tbaa !27
  %25 = getelementptr inbounds nuw i8, ptr %2, i64 56
  %26 = load i16, ptr %25, align 8, !tbaa !27
  %27 = getelementptr inbounds nuw i8, ptr %2, i64 58
  %28 = load i16, ptr %27, align 2, !tbaa !27
  %29 = getelementptr inbounds nuw i8, ptr %2, i64 116
  %30 = load i32, ptr %29, align 4, !tbaa !27
  %31 = getelementptr inbounds nuw i8, ptr %17, i64 16
  %32 = load ptr, ptr %31, align 8, !tbaa !35
  store i32 0, ptr %32, align 8, !tbaa !36
  %33 = lshr i32 %24, 14
  %34 = and i32 %33, 255
  %35 = mul nuw nsw i32 %34, 1000000
  %36 = zext nneg i32 %35 to i64
  %37 = getelementptr inbounds nuw i8, ptr %32, i64 48
  store i64 %36, ptr %37, align 8, !tbaa !39
  %38 = and i32 %24, 15
  %39 = getelementptr inbounds nuw i8, ptr %32, i64 8
  store i32 %38, ptr %39, align 8, !tbaa !40
  %40 = call i32 @ff_codec_get_id(ptr noundef nonnull @lxf_tags, i32 noundef %38) #7
  %41 = load ptr, ptr %31, align 8, !tbaa !35
  %42 = getelementptr inbounds nuw i8, ptr %41, i64 4
  store i32 %40, ptr %42, align 4, !tbaa !41
  %43 = getelementptr inbounds nuw i8, ptr %17, i64 808
  store i32 2, ptr %43, align 8, !tbaa !42
  %44 = zext i16 %26 to i32
  %45 = and i32 %44, 127
  %46 = add nuw nsw i32 %45, 1900
  %47 = lshr i32 %44, 7
  %48 = and i32 %47, 15
  %49 = lshr i32 %44, 11
  call void (ptr, i32, ptr, ...) @av_log(ptr noundef nonnull %0, i32 noundef 48, ptr noundef nonnull @.str.4, i32 noundef %44, i32 noundef %46, i32 noundef %48, i32 noundef %49) #7
  %50 = zext i16 %28 to i32
  %51 = and i32 %50, 127
  %52 = add nuw nsw i32 %51, 1900
  %53 = lshr i32 %50, 7
  %54 = and i32 %53, 15
  %55 = lshr i32 %50, 11
  call void (ptr, i32, ptr, ...) @av_log(ptr noundef nonnull %0, i32 noundef 48, ptr noundef nonnull @.str.5, i32 noundef %50, i32 noundef %52, i32 noundef %54, i32 noundef %55) #7
  %56 = and i32 %24, 4194304
  %.not49 = icmp eq i32 %56, 0
  br i1 %.not49, label %58, label %57

57:                                               ; preds = %18
  call void (ptr, i32, ptr, ...) @av_log(ptr noundef nonnull %0, i32 noundef 24, ptr noundef nonnull @.str.6) #7
  br label %58

58:                                               ; preds = %57, %18
  %59 = lshr i32 %30, 4
  %60 = and i32 %59, 3
  %61 = shl nuw nsw i32 2, %60
  store i32 %61, ptr %4, align 4, !tbaa !54
  %62 = call ptr @avformat_new_stream(ptr noundef nonnull %0, ptr noundef null) #7
  %.not50 = icmp eq ptr %62, null
  br i1 %.not50, label %74, label %63

63:                                               ; preds = %58
  %64 = getelementptr inbounds nuw i8, ptr %62, i64 16
  %65 = load ptr, ptr %64, align 8, !tbaa !35
  store i32 1, ptr %65, align 8, !tbaa !36
  %66 = getelementptr inbounds nuw i8, ptr %65, i64 152
  store i32 48000, ptr %66, align 8, !tbaa !56
  %67 = load i32, ptr %4, align 4, !tbaa !54
  %68 = getelementptr inbounds nuw i8, ptr %65, i64 132
  store i32 %67, ptr %68, align 4, !tbaa !57
  call void @avpriv_set_pts_info(ptr noundef nonnull %62, i32 noundef 64, i32 noundef 1, i32 noundef 48000) #7
  %69 = load ptr, ptr %5, align 8, !tbaa !26
  %70 = getelementptr inbounds nuw i8, ptr %4, i64 16
  %71 = load i32, ptr %70, align 4, !tbaa !58
  %72 = zext i32 %71 to i64
  %73 = call i64 @avio_skip(ptr noundef %69, i64 noundef %72) #7
  br label %74

74:                                               ; preds = %58, %16, %1, %63, %13, %10
  %.0 = phi i32 [ -1094995529, %10 ], [ %15, %13 ], [ 0, %63 ], [ %7, %1 ], [ -12, %16 ], [ -12, %58 ]
  call void @llvm.lifetime.end.p0(i64 120, ptr nonnull %2) #7
  ret i32 %.0
}